target datalayout = "e-m:e-p270:32:32-p271:32:32-p272:64:64-i64:64-i128:128-f80:128-n8:16:32:64-S128"
target triple = "x86_64-pc-linux-gnu"

%struct.slurm_proctrack_ops = type { ptr, ptr, ptr, ptr, ptr, ptr, ptr, ptr }
%struct.sig_agent_arg_t = type { i64, i32 }

@ops = internal global %struct.slurm_proctrack_ops zeroinitializer, align 8
@.str.5 = private unnamed_addr constant [14 x i8] c"/proc/%d/stat\00", align 1
@.str.6 = private unnamed_addr constant [32 x i8] c"Process %d continuing core dump\00", align 1

; Function Attrs: nounwind uwtable
define dso_local i32 @proctrack_g_get_pids(i64 noundef %0, ptr noundef %1, ptr noundef %2) #0 {
  %4 = alloca i64, align 8
  %5 = alloca ptr, align 8
  %6 = alloca ptr, align 8
  store i64 %0, ptr %4, align 8
  store ptr %1, ptr %5, align 8
  store ptr %2, ptr %6, align 8
  %7 = load ptr, ptr getelementptr inbounds nuw (%struct.slurm_proctrack_ops, ptr @ops, i32 0, i32 7), align 8
  %8 = load i64, ptr %4, align 8
  %9 = load ptr, ptr %5, align 8
  %10 = load ptr, ptr %6, align 8
  %11 = call i32 %7(i64 noundef %8, ptr noundef %9, ptr noundef %10)
  ret i32 %11
}

; Function Attrs: nounwind uwtable
define internal ptr @_sig_agent(ptr noundef %0) #0 {
  %2 = alloca ptr, align 8
  %3 = alloca i8, align 1
  %4 = alloca ptr, align 8
  %5 = alloca ptr, align 8
  %6 = alloca i32, align 4
  %7 = alloca i32, align 4
  %8 = alloca ptr, align 8
  %9 = alloca i32, align 4
  store ptr %0, ptr %2, align 8
  call void @llvm.lifetime.start.p0(i64 1, ptr %3) #8
  store i8 0, ptr %3, align 1
  call void @llvm.lifetime.start.p0(i64 8, ptr %4) #8
  %10 = load ptr, ptr %2, align 8
  store ptr %10, ptr %4, align 8
  br label %11

11:                                               ; preds = %80, %1
  br label %12

12:                                               ; preds = %11
  call void @llvm.lifetime.start.p0(i64 8, ptr %5) #8
  store ptr null, ptr %5, align 8
  call void @llvm.lifetime.start.p0(i64 4, ptr %6) #8
  call void @llvm.lifetime.start.p0(i64 4, ptr %7) #8
  store i32 0, ptr %7, align 4
  call void @llvm.lifetime.start.p0(i64 8, ptr %8) #8
  store ptr null, ptr %8, align 8
  %13 = load i8, ptr %3, align 1, !range !14, !noundef !15
  %14 = trunc i8 %13 to i1
  br i1 %14, label %15, label %17

15:                                               ; preds = %12
  %16 = call i32 @sleep(i32 noundef 5)
  br label %17

17:                                               ; preds = %15, %12
  store i8 0, ptr %3, align 1
  %18 = load ptr, ptr %4, align 8
  %19 = getelementptr inbounds nuw %struct.sig_agent_arg_t, ptr %18, i32 0, i32 0
  %20 = load i64, ptr %19, align 8
  %21 = call i32 @proctrack_g_get_pids(i64 noundef %20, ptr noundef %5, ptr noundef %7)
  %22 = icmp eq i32 %21, 0
  br i1 %22, label %23, label %79

23:                                               ; preds = %17
  store i32 0, ptr %6, align 4
  br label %24

24:                                               ; preds = %53, %23
  %25 = load i32, ptr %6, align 4
  %26 = load i32, ptr %7, align 4
  %27 = icmp slt i32 %25, %26
  br i1 %27, label %28, label %56

28:                                               ; preds = %24
  %29 = load ptr, ptr %5, align 8
  %30 = load i32, ptr %6, align 4
  %31 = sext i32 %30 to i64
  %32 = getelementptr inbounds i32, ptr %29, i64 %31
  %33 = load i32, ptr %32, align 4
  call void (ptr, ptr, ...) @_xstrfmtcat(ptr noundef %8, ptr noundef @.str.5, i32 noundef %33)
  %34 = load ptr, ptr %8, align 8
  %35 = call zeroext i1 @_test_core_dumping(ptr noundef %34)
  br i1 %35, label %36, label %52

36:                                               ; preds = %28
  br label %37

37:                                               ; preds = %36
  br label %38

38:                                               ; preds = %37
  %39 = call i32 @get_log_level()
  %40 = icmp sge i32 %39, 5
  br i1 %40, label %41, label %47

41:                                               ; preds = %38
  %42 = load ptr, ptr %5, align 8
  %43 = load i32, ptr %6, align 4
  %44 = sext i32 %43 to i64
  %45 = getelementptr inbounds i32, ptr %42, i64 %44
  %46 = load i32, ptr %45, align 4
  call void (i32, ptr, ...) @log_var(i32 noundef 5, ptr noundef @.str.6, i32 noundef %46)
  br label %47

47:                                               ; preds = %41, %38
  br label %48

48:                                               ; preds = %47
  br label %49

49:                                               ; preds = %48
  br label %50

50:                                               ; preds = %49
  br label %51

51:                                               ; preds = %50
  store i8 1, ptr %3, align 1
  call void @slurm_xfree(ptr noundef %8)
  br label %56

52:                                               ; preds = %28
  call void @slurm_xfree(ptr noundef %8)
  br label %53

53:                                               ; preds = %52
  %54 = load i32, ptr %6, align 4
  %55 = add nsw i32 %54, 1
  store i32 %55, ptr %6, align 4
  br label %24, !llvm.loop !16

56:                                               ; preds = %51, %24
  %57 = load i8, ptr %3, align 1, !range !14, !noundef !15
  %58 = trunc i8 %57 to i1
  br i1 %58, label %59, label %60

59:                                               ; preds = %56
  call void @slurm_xfree(ptr noundef %5)
  store i32 2, ptr %9, align 4
  br label %80, !llvm.loop !17

60:                                               ; preds = %56
  store i32 0, ptr %6, align 4
  br label %61

61:                                               ; preds = %75, %60
  %62 = load i32, ptr %6, align 4
  %63 = load i32, ptr %7, align 4
  %64 = icmp slt i32 %62, %63
  br i1 %64, label %65, label %78

65:                                               ; preds = %61
  %66 = load ptr, ptr %5, align 8
  %67 = load i32, ptr %6, align 4
  %68 = sext i32 %67 to i64
  %69 = getelementptr inbounds i32, ptr %66, i64 %68
  %70 = load i32, ptr %69, align 4
  %71 = load ptr, ptr %4, align 8
  %72 = getelementptr inbounds nuw %struct.sig_agent_arg_t, ptr %71, i32 0, i32 1
  %73 = load i32, ptr %72, align 8
  %74 = call i32 @kill(i32 noundef %70, i32 noundef %73) #8
  br label %75

75:                                               ; preds = %65
  %76 = load i32, ptr %6, align 4
  %77 = add nsw i32 %76, 1
  store i32 %77, ptr %6, align 4
  br label %61, !llvm.loop !18

78:                                               ; preds = %61
  call void @slurm_xfree(ptr noundef %5)
  br label %79

79:                                               ; preds = %78, %17
  store i32 3, ptr %9, align 4
  br label %80

80:                                               ; preds = %79, %59
  call void @llvm.lifetime.end.p0(i64 8, ptr %8) #8
  call void @llvm.lifetime.end.p0(i64 4, ptr %7) #8
  call void @llvm.lifetime.end.p0(i64 4, ptr %6) #8
  call void @llvm.lifetime.end.p0(i64 8, ptr %5) #8
  %81 = load i32, ptr %9, align 4
  switch i32 %81, label %91 [
    i32 2, label %11
    i32 3, label %82
  ]

82:                                               ; preds = %80
  %83 = load ptr, ptr getelementptr inbounds nuw (%struct.slurm_proctrack_ops, ptr @ops, i32 0, i32 2), align 8
  %84 = load ptr, ptr %4, align 8
  %85 = getelementptr inbounds nuw %struct.sig_agent_arg_t, ptr %84, i32 0, i32 0
  %86 = load i64, ptr %85, align 8
  %87 = load ptr, ptr %4, align 8
  %88 = getelementptr inbounds nuw %struct.sig_agent_arg_t, ptr %87, i32 0, i32 1
  %89 = load i32, ptr %88, align 8
  %90 = call i32 %83(i64 noundef %86, i32 noundef %89)
  call void @slurm_xfree(ptr noundef %2)
  store i32 1, ptr %9, align 4
  call void @llvm.lifetime.end.p0(i64 8, ptr %4) #8
  call void @llvm.lifetime.end.p0(i64 1, ptr %3) #8
  ret ptr null

91:                                               ; preds = %80
  unreachable
}