; Function Attrs: nounwind uwtable
define internal noundef ptr @_sig_agent(ptr noundef %0) #0 {
.critedge:
  %1 = alloca ptr, align 8
  %2 = alloca ptr, align 8
  %3 = alloca i32, align 4
  %4 = alloca ptr, align 8
  store ptr %0, ptr %1, align 8
  call void @llvm.lifetime.start.p0(i64 8, ptr nonnull %2) #10
  store ptr null, ptr %2, align 8
  call void @llvm.lifetime.start.p0(i64 4, ptr nonnull %3) #10
  store i32 0, ptr %3, align 4
  call void @llvm.lifetime.start.p0(i64 8, ptr nonnull %4) #10
  store ptr null, ptr %4, align 8
  %5 = load i64, ptr %0, align 8
  %6 = load ptr, ptr getelementptr inbounds nuw (i8, ptr @ops, i64 56), align 8
  %7 = call i32 %6(i64 noundef %5, ptr noundef nonnull %2, ptr noundef nonnull %3) #10
  %8 = icmp eq i32 %7, 0
  br i1 %8, label %.preheader23, label %.loopexit

.preheader23:                                     ; preds = %.critedge, %38
  %9 = load i32, ptr %3, align 4
  %10 = icmp sgt i32 %9, 0
  br i1 %10, label %.lr.ph, label %._crit_edge

.preheader:                                       ; preds = %25
  %11 = icmp sgt i32 %26, 0
  br i1 %11, label %.lr.ph26, label %._crit_edge

.lr.ph26:                                         ; preds = %.preheader
  %12 = getelementptr inbounds nuw i8, ptr %0, i64 8
  br label %29

.lr.ph:                                           ; preds = %.preheader23, %25
  %indvars.iv = phi i64 [ %indvars.iv.next, %25 ], [ 0, %.preheader23 ]
  %13 = load ptr, ptr %2, align 8
  %14 = getelementptr inbounds nuw i32, ptr %13, i64 %indvars.iv
  %15 = load i32, ptr %14, align 4
  call void (ptr, ptr, ...) @_xstrfmtcat(ptr noundef nonnull %4, ptr noundef nonnull @.str.5, i32 noundef %15) #10
  %16 = load ptr, ptr %4, align 8
  %17 = call fastcc zeroext i1 @_test_core_dumping(ptr noundef %16)
  br i1 %17, label %18, label %25

18:                                               ; preds = %.lr.ph
  %19 = call i32 @get_log_level() #10
  %20 = icmp sgt i32 %19, 4
  br i1 %20, label %21, label %38

21:                                               ; preds = %18
  %22 = load ptr, ptr %2, align 8
  %23 = getelementptr inbounds nuw i32, ptr %22, i64 %indvars.iv
  %24 = load i32, ptr %23, align 4
  call void (i32, ptr, ...) @log_var(i32 noundef 5, ptr noundef nonnull @.str.6, i32 noundef %24) #10
  br label %38

25:                                               ; preds = %.lr.ph
  call void @slurm_xfree(ptr noundef nonnull %4) #10
  %indvars.iv.next = add nuw nsw i64 %indvars.iv, 1
  %26 = load i32, ptr %3, align 4
  %27 = sext i32 %26 to i64
  %28 = icmp slt i64 %indvars.iv.next, %27
  br i1 %28, label %.lr.ph, label %.preheader, !llvm.loop !14

29:                                               ; preds = %.lr.ph26, %29
  %indvars.iv30 = phi i64 [ 0, %.lr.ph26 ], [ %indvars.iv.next31, %29 ]
  %30 = load ptr, ptr %2, align 8
  %31 = getelementptr inbounds nuw i32, ptr %30, i64 %indvars.iv30
  %32 = load i32, ptr %31, align 4
  %33 = load i32, ptr %12, align 8
  %34 = call i32 @kill(i32 noundef %32, i32 noundef %33) #10
  %indvars.iv.next31 = add nuw nsw i64 %indvars.iv30, 1
  %35 = load i32, ptr %3, align 4
  %36 = sext i32 %35 to i64
  %37 = icmp slt i64 %indvars.iv.next31, %36
  br i1 %37, label %29, label %._crit_edge, !llvm.loop !15

._crit_edge:                                      ; preds = %.preheader23, %29, %.preheader
  call void @slurm_xfree(ptr noundef nonnull %2) #10
  br label %.loopexit

38:                                               ; preds = %21, %18
  call void @slurm_xfree(ptr noundef nonnull %4) #10
  call void @slurm_xfree(ptr noundef nonnull %2) #10
  call void @llvm.lifetime.end.p0(i64 8, ptr nonnull %4) #10
  call void @llvm.lifetime.end.p0(i64 4, ptr nonnull %3) #10
  call void @llvm.lifetime.end.p0(i64 8, ptr nonnull %2) #10
  call void @llvm.lifetime.start.p0(i64 8, ptr nonnull %2) #10
  store ptr null, ptr %2, align 8
  call void @llvm.lifetime.start.p0(i64 4, ptr nonnull %3) #10
  store i32 0, ptr %3, align 4
  call void @llvm.lifetime.start.p0(i64 8, ptr nonnull %4) #10
  store ptr null, ptr %4, align 8
  %39 = call i32 @sleep(i32 noundef 5) #10
  %40 = load i64, ptr %0, align 8
  %41 = load ptr, ptr getelementptr inbounds nuw (i8, ptr @ops, i64 56), align 8
  %42 = call i32 %41(i64 noundef %40, ptr noundef nonnull %2, ptr noundef nonnull %3) #10
  %43 = icmp eq i32 %42, 0
  br i1 %43, label %.preheader23, label %.loopexit

.loopexit:                                        ; preds = %38, %.critedge, %._crit_edge
  call void @llvm.lifetime.end.p0(i64 8, ptr nonnull %4) #10
  call void @llvm.lifetime.end.p0(i64 4, ptr nonnull %3) #10
  call void @llvm.lifetime.end.p0(i64 8, ptr nonnull %2) #10
  %44 = load ptr, ptr getelementptr inbounds nuw (i8, ptr @ops, i64 16), align 8
  %45 = load i64, ptr %0, align 8
  %46 = getelementptr inbounds nuw i8, ptr %0, i64 8
  %47 = load i32, ptr %46, align 8
  %48 = call i32 %44(i64 noundef %45, i32 noundef %47) #10
  call void @slurm_xfree(ptr noundef nonnull %1) #10
  ret ptr null
}